; Function Attrs: mustprogress uwtable
define hidden noundef i32 @_ZN7datalog12aig_exporter12mk_input_varEPK4expr(ptr noundef nonnull align 8 dereferenceable(624) %this, ptr noundef %e) local_unnamed_addr #3 align 2 {
entry:
  %ref.tmp.i = alloca %"struct.obj_map<const expr, unsigned int>::key_data", align 8
  %m_next_aig_expr_id.i = getelementptr inbounds i8, ptr %this, i64 96
  %0 = load i32, ptr %m_next_aig_expr_id.i, align 8
  %add.i = add i32 %0, 2
  store i32 %add.i, ptr %m_next_aig_expr_id.i, align 8
  %m_input_vars = getelementptr inbounds i8, ptr %this, i64 224
  %1 = load ptr, ptr %m_input_vars, align 8
  %cmp.i = icmp eq ptr %1, null
  br i1 %cmp.i, label %if.then.i, label %lor.lhs.false.i

lor.lhs.false.i:                                  ; preds = %entry
  %arrayidx.i = getelementptr inbounds i8, ptr %1, i64 -4
  %2 = load i32, ptr %arrayidx.i, align 4
  %arrayidx4.i = getelementptr inbounds i8, ptr %1, i64 -8
  %3 = load i32, ptr %arrayidx4.i, align 4
  %cmp5.i = icmp eq i32 %2, %3
  br i1 %cmp5.i, label %if.then.i, label %_ZN6vectorIjLb0EjE9push_backERKj.exit

if.then.i:                                        ; preds = %lor.lhs.false.i, %entry
  tail call void @_ZN6vectorIjLb0EjE13expand_vectorEv(ptr noundef nonnull align 8 dereferenceable(8) %m_input_vars)
  %.pre.i = load ptr, ptr %m_input_vars, align 8
  %arrayidx8.phi.trans.insert.i = getelementptr inbounds i8, ptr %.pre.i, i64 -4
  %.pre1.i = load i32, ptr %arrayidx8.phi.trans.insert.i, align 4
  br label %_ZN6vectorIjLb0EjE9push_backERKj.exit

_ZN6vectorIjLb0EjE9push_backERKj.exit:            ; preds = %lor.lhs.false.i, %if.then.i
  %4 = phi i32 [ %.pre1.i, %if.then.i ], [ %2, %lor.lhs.false.i ]
  %5 = phi ptr [ %.pre.i, %if.then.i ], [ %1, %lor.lhs.false.i ]
  %idx.ext.i = zext i32 %4 to i64
  %add.ptr.i = getelementptr inbounds i32, ptr %5, i64 %idx.ext.i
  store i32 %0, ptr %add.ptr.i, align 4
  %6 = load ptr, ptr %m_input_vars, align 8
  %arrayidx10.i = getelementptr inbounds i8, ptr %6, i64 -4
  %7 = load i32, ptr %arrayidx10.i, align 4
  %inc.i = add i32 %7, 1
  store i32 %inc.i, ptr %arrayidx10.i, align 4
  %tobool.not = icmp eq ptr %e, null
  br i1 %tobool.not, label %if.end, label %if.then

if.then:                                          ; preds = %_ZN6vectorIjLb0EjE9push_backERKj.exit
  %m_aig_expr_id_map = getelementptr inbounds i8, ptr %this, i64 72
  call void @llvm.lifetime.start.p0(i64 16, ptr nonnull %ref.tmp.i)
  store ptr %e, ptr %ref.tmp.i, align 8
  %m_value.i.i = getelementptr inbounds i8, ptr %ref.tmp.i, i64 8
  store i32 %0, ptr %m_value.i.i, align 8
  call void @_ZN14core_hashtableIN7obj_mapIK4exprjE13obj_map_entryE8obj_hashINS3_8key_dataEE10default_eqIS6_EE6insertEOS6_(ptr noundef nonnull align 8 dereferenceable(20) %m_aig_expr_id_map, ptr noundef nonnull align 8 dereferenceable(12) %ref.tmp.i)
  call void @llvm.lifetime.end.p0(i64 16, ptr nonnull %ref.tmp.i)
  br label %if.end

if.end:                                           ; preds = %if.then, %_ZN6vectorIjLb0EjE9push_backERKj.exit
  ret i32 %0
}